target datalayout = "e-m:e-p270:32:32-p271:32:32-p272:64:64-i64:64-i128:128-f80:128-n8:16:32:64-S128"
target triple = "x86_64-unknown-linux-gnu"

%class.aiColor4t = type { float, float, float, float }

; Function Attrs: mustprogress uwtable
define linkonce_odr noundef i32 @_ZNK10aiMaterial3GetEPKcjjR9aiColor4tIfE(ptr noundef nonnull align 8 dereferenceable(16) %this, ptr noundef %pKey, i32 noundef %type, i32 noundef %idx, ptr noundef nonnull align 4 dereferenceable(16) %pOut) #3 comdat align 2 {
entry:
  %this.addr = alloca ptr, align 8
  %pKey.addr = alloca ptr, align 8
  %type.addr = alloca i32, align 4
  %idx.addr = alloca i32, align 4
  %pOut.addr = alloca ptr, align 8
  store ptr %this, ptr %this.addr, align 8
  store ptr %pKey, ptr %pKey.addr, align 8
  store i32 %type, ptr %type.addr, align 4
  store i32 %idx, ptr %idx.addr, align 4
  store ptr %pOut, ptr %pOut.addr, align 8
  %this1 = load ptr, ptr %this.addr, align 8
  %0 = load ptr, ptr %pKey.addr, align 8
  %1 = load i32, ptr %type.addr, align 4
  %2 = load i32, ptr %idx.addr, align 4
  %3 = load ptr, ptr %pOut.addr, align 8
  %call = call i32 @aiGetMaterialColor(ptr noundef %this1, ptr noundef %0, i32 noundef %1, i32 noundef %2, ptr noundef %3)
  ret i32 %call
}

; Function Attrs: mustprogress nounwind uwtable
define linkonce_odr hidden void @_ZN9aiColor4tIfEC2Ev(ptr noundef nonnull align 4 dereferenceable(16) %this) unnamed_addr #0 comdat align 2 {
entry:
  %this.addr = alloca ptr, align 8
  store ptr %this, ptr %this.addr, align 8
  %this1 = load ptr, ptr %this.addr, align 8
  %r = getelementptr inbounds %class.aiColor4t, ptr %this1, i32 0, i32 0
  store float 0.000000e+00, ptr %r, align 4
  %g = getelementptr inbounds %class.aiColor4t, ptr %this1, i32 0, i32 1
  store float 0.000000e+00, ptr %g, align 4
  %b = getelementptr inbounds %class.aiColor4t, ptr %this1, i32 0, i32 2
  store float 0.000000e+00, ptr %b, align 4
  %a = getelementptr inbounds %class.aiColor4t, ptr %this1, i32 0, i32 3
  store float 0.000000e+00, ptr %a, align 4
  ret void
}

; Function Attrs: mustprogress uwtable
define hidden noundef i32 @_ZNK6Assimp13glTF2Exporter11GetMatColorERK10aiMaterialRA4_fPKcii(ptr noundef nonnull align 8 dereferenceable(120) %this, ptr noundef nonnull align 8 dereferenceable(16) %mat, ptr noundef nonnull align 4 dereferenceable(16) %prop, ptr noundef %propName, i32 noundef %type, i32 noundef %idx) #3 align 2 {
entry:
  %this.addr = alloca ptr, align 8
  %mat.addr = alloca ptr, align 8
  %prop.addr = alloca ptr, align 8
  %propName.addr = alloca ptr, align 8
  %type.addr = alloca i32, align 4
  %idx.addr = alloca i32, align 4
  %col = alloca %class.aiColor4t, align 4
  %result = alloca i32, align 4
  store ptr %this, ptr %this.addr, align 8
  store ptr %mat, ptr %mat.addr, align 8
  store ptr %prop, ptr %prop.addr, align 8
  store ptr %propName, ptr %propName.addr, align 8
  store i32 %type, ptr %type.addr, align 4
  store i32 %idx, ptr %idx.addr, align 4
  call void @_ZN9aiColor4tIfEC2Ev(ptr noundef nonnull align 4 dereferenceable(16) %col) #18
  %0 = load ptr, ptr %mat.addr, align 8
  %1 = load ptr, ptr %propName.addr, align 8
  %2 = load i32, ptr %type.addr, align 4
  %3 = load i32, ptr %idx.addr, align 4
  %call = call noundef i32 @_ZNK10aiMaterial3GetEPKcjjR9aiColor4tIfE(ptr noundef nonnull align 8 dereferenceable(16) %0, ptr noundef %1, i32 noundef %2, i32 noundef %3, ptr noundef nonnull align 4 dereferenceable(16) %col)
  store i32 %call, ptr %result, align 4
  %4 = load i32, ptr %result, align 4
  %cmp = icmp eq i32 %4, 0
  br i1 %cmp, label %if.then, label %if.end

if.then:                                          ; preds = %entry
  %r = getelementptr inbounds %class.aiColor4t, ptr %col, i32 0, i32 0
  %5 = load float, ptr %r, align 4
  %6 = load ptr, ptr %prop.addr, align 8
  %arrayidx = getelementptr inbounds [4 x float], ptr %6, i64 0, i64 0
  store float %5, ptr %arrayidx, align 4
  %g = getelementptr inbounds %class.aiColor4t, ptr %col, i32 0, i32 1
  %7 = load float, ptr %g, align 4
  %8 = load ptr, ptr %prop.addr, align 8
  %arrayidx2 = getelementptr inbounds [4 x float], ptr %8, i64 0, i64 1
  store float %7, ptr %arrayidx2, align 4
  %b = getelementptr inbounds %class.aiColor4t, ptr %col, i32 0, i32 2
  %9 = load float, ptr %b, align 4
  %10 = load ptr, ptr %prop.addr, align 8
  %arrayidx3 = getelementptr inbounds [4 x float], ptr %10, i64 0, i64 2
  store float %9, ptr %arrayidx3, align 4
  %a = getelementptr inbounds %class.aiColor4t, ptr %col, i32 0, i32 3
  %11 = load float, ptr %a, align 4
  %12 = load ptr, ptr %prop.addr, align 8
  %arrayidx4 = getelementptr inbounds [4 x float], ptr %12, i64 0, i64 3
  store float %11, ptr %arrayidx4, align 4
  br label %if.end

if.end:                                           ; preds = %if.then, %entry
  %13 = load i32, ptr %result, align 4
  ret i32 %13
}