; Function Attrs: mustprogress uwtable
define hidden noundef i32 @_ZNK6Assimp13glTF2Exporter11GetMatColorERK10aiMaterialRA4_fPKcii(ptr nocapture noundef nonnull readnone align 8 dereferenceable(120) %this, ptr noundef nonnull align 8 dereferenceable(16) %mat, ptr nocapture noundef nonnull writeonly align 4 dereferenceable(16) %prop, ptr noundef %propName, i32 noundef %type, i32 noundef %idx) local_unnamed_addr #2 align 2 {
entry:
  %col = alloca %class.aiColor4t, align 16
  call void @llvm.memset.p0.i64(ptr noundef nonnull align 16 dereferenceable(16) %col, i8 0, i64 16, i1 false)
  %call.i = call noundef i32 @aiGetMaterialColor(ptr noundef nonnull %mat, ptr noundef %propName, i32 noundef %type, i32 noundef %idx, ptr noundef nonnull %col)
  %cmp = icmp eq i32 %call.i, 0
  br i1 %cmp, label %if.then, label %if.end

if.then:                                          ; preds = %entry
  %0 = load <4 x float>, ptr %col, align 16
  store <4 x float> %0, ptr %prop, align 4
  br label %if.end

if.end:                                           ; preds = %if.then, %entry
  ret i32 %call.i
}